; Function Attrs: mustprogress uwtable
define noundef nonnull align 8 dereferenceable(66) ptr @_ZN6icu_776number4impl15DecimalQuantity14setToDecNumberENS_11StringPieceER10UErrorCode(ptr noundef nonnull returned align 8 dereferenceable(66) initializes((12, 22), (24, 36), (44, 48)) %0, ptr %1, i32 %2, ptr noundef nonnull align 4 dereferenceable(4) %3) local_unnamed_addr #1 align 2 personality ptr @__gxx_personality_v0 {
  %5 = alloca %"class.icu_77::number::impl::DecNum", align 8
  %6 = getelementptr inbounds nuw i8, ptr %0, i64 64
  %7 = load i8, ptr %6, align 8, !tbaa !22, !range !24, !noundef !25
  %8 = trunc nuw i8 %7 to i1
  br i1 %8, label %9, label %_ZN6icu_776number4impl15DecimalQuantity12setBcdToZeroEv.exit

9:                                                ; preds = %4
  %10 = getelementptr inbounds nuw i8, ptr %0, i64 48
  %11 = load ptr, ptr %10, align 8, !tbaa !26
  tail call void @uprv_free_77(ptr noundef %11)
  store i8 0, ptr %6, align 8, !tbaa !22
  br label %_ZN6icu_776number4impl15DecimalQuantity12setBcdToZeroEv.exit

_ZN6icu_776number4impl15DecimalQuantity12setBcdToZeroEv.exit: ; preds = %4, %9
  %12 = getelementptr inbounds nuw i8, ptr %0, i64 48
  store i64 0, ptr %12, align 8, !tbaa !26
  %13 = getelementptr inbounds nuw i8, ptr %0, i64 12
  %14 = getelementptr inbounds nuw i8, ptr %0, i64 24
  store double 0.000000e+00, ptr %14, align 8, !tbaa !30
  %15 = getelementptr inbounds nuw i8, ptr %0, i64 32
  store i32 0, ptr %15, align 8, !tbaa !31
  %16 = getelementptr inbounds nuw i8, ptr %0, i64 44
  store i32 0, ptr %16, align 4, !tbaa !32
  tail call void @llvm.memset.p0.i64(ptr noundef nonnull align 4 dereferenceable(10) %13, i8 0, i64 10, i1 false)
  call void @llvm.lifetime.start.p0(i64 96, ptr nonnull %5) #26
  call void @_ZN6icu_776number4impl6DecNumC1Ev(ptr noundef nonnull align 8 dereferenceable(92) %5)
  invoke void @_ZN6icu_776number4impl6DecNum5setToENS_11StringPieceER10UErrorCode(ptr noundef nonnull align 8 dereferenceable(92) %5, ptr %1, i32 %2, ptr noundef nonnull align 4 dereferenceable(4) %3)
          to label %17 unwind label %26

17:                                               ; preds = %_ZN6icu_776number4impl15DecimalQuantity12setBcdToZeroEv.exit
  invoke void @_ZN6icu_776number4impl15DecimalQuantity12_setToDecNumERKNS1_6DecNumER10UErrorCode(ptr noundef nonnull align 8 dereferenceable(66) %0, ptr noundef nonnull align 8 dereferenceable(92) %5, ptr noundef nonnull align 4 dereferenceable(4) %3)
          to label %18 unwind label %26

18:                                               ; preds = %17
  %19 = getelementptr inbounds nuw i8, ptr %5, i64 12
  %20 = load i8, ptr %19, align 4, !tbaa !46
  %.not.i.i.i = icmp eq i8 %20, 0
  br i1 %.not.i.i.i, label %_ZN6icu_776number4impl6DecNumD2Ev.exit, label %21

21:                                               ; preds = %18
  %22 = load ptr, ptr %5, align 8, !tbaa !49
  invoke void @uprv_free_77(ptr noundef %22)
          to label %_ZN6icu_776number4impl6DecNumD2Ev.exit unwind label %23

23:                                               ; preds = %21
  %24 = landingpad { ptr, i32 }
          catch ptr null
  %25 = extractvalue { ptr, i32 } %24, 0
  call void @__clang_call_terminate(ptr %25) #28
  unreachable

_ZN6icu_776number4impl6DecNumD2Ev.exit:           ; preds = %18, %21
  call void @llvm.lifetime.end.p0(i64 96, ptr nonnull %5) #26
  ret ptr %0

26:                                               ; preds = %17, %_ZN6icu_776number4impl15DecimalQuantity12setBcdToZeroEv.exit
  %27 = landingpad { ptr, i32 }
          cleanup
  call void @_ZN6icu_776number4impl6DecNumD2Ev(ptr noundef nonnull align 8 dereferenceable(92) %5) #26
  call void @llvm.lifetime.end.p0(i64 96, ptr nonnull %5) #26
  resume { ptr, i32 } %27
}